target datalayout = "e-m:e-p270:32:32-p271:32:32-p272:64:64-i64:64-i128:128-f80:128-n8:16:32:64-S128"
target triple = "x86_64-pc-linux-gnu"

%"class.absl::Time" = type { %"class.absl::Duration" }
%"class.absl::Duration" = type { %"class.absl::Duration::HiRep", i32 }
%"class.absl::Duration::HiRep" = type { i32, i32 }
%struct.timespec = type { i64, i64 }

@.str = private unnamed_addr constant [145 x i8] c"generated/home/dtcxzyw/WorkSpace/Projects/compilers/llvm-opt-benchmark/bench/abseil-cpp/abseil-cpp/absl/time/internal/get_current_time_posix.inc\00", align 1
@.str.1 = private unnamed_addr constant [20 x i8] c"Check %s failed: %s\00", align 1
@.str.2 = private unnamed_addr constant [40 x i8] c"clock_gettime(CLOCK_REALTIME, &ts) == 0\00", align 1
@.str.3 = private unnamed_addr constant [32 x i8] c"Failed to read real-time clock.\00", align 1

; Function Attrs: mustprogress nounwind uwtable
define linkonce_odr dso_local noundef nonnull align 4 dereferenceable(8) ptr @_ZN4absl8Duration5HiRepaSEl(ptr noundef nonnull align 4 dereferenceable(8) %0, i64 noundef %1) #5 comdat align 2 {
  %3 = alloca ptr, align 8
  %4 = alloca i64, align 8
  %5 = alloca i64, align 8
  store ptr %0, ptr %3, align 8, !tbaa !27
  store i64 %1, ptr %4, align 8, !tbaa !4
  %6 = load ptr, ptr %3, align 8
  call void @llvm.lifetime.start.p0(i64 8, ptr %5) #10
  %7 = load i64, ptr %4, align 8, !tbaa !4
  store i64 %7, ptr %5, align 8, !tbaa !4
  %8 = load i64, ptr %5, align 8, !tbaa !4
  %9 = lshr i64 %8, 32
  %10 = trunc i64 %9 to i32
  %11 = getelementptr inbounds nuw %"class.absl::Duration::HiRep", ptr %6, i32 0, i32 1
  store i32 %10, ptr %11, align 4, !tbaa !30
  %12 = load i64, ptr %5, align 8, !tbaa !4
  %13 = trunc i64 %12 to i32
  %14 = getelementptr inbounds nuw %"class.absl::Duration::HiRep", ptr %6, i32 0, i32 0
  store i32 %13, ptr %14, align 4, !tbaa !29
  call void @llvm.lifetime.end.p0(i64 8, ptr %5) #10
  ret ptr %6
}

; Function Attrs: mustprogress uwtable
define linkonce_odr dso_local void @_ZN4absl8Duration5HiRepC2El(ptr noundef nonnull align 4 dereferenceable(8) %0, i64 noundef %1) unnamed_addr #0 comdat align 2 {
  %3 = alloca ptr, align 8
  %4 = alloca i64, align 8
  store ptr %0, ptr %3, align 8, !tbaa !27
  store i64 %1, ptr %4, align 8, !tbaa !4
  %5 = load ptr, ptr %3, align 8
  %6 = getelementptr inbounds nuw %"class.absl::Duration::HiRep", ptr %5, i32 0, i32 0
  store i32 0, ptr %6, align 4, !tbaa !29
  %7 = getelementptr inbounds nuw %"class.absl::Duration::HiRep", ptr %5, i32 0, i32 1
  store i32 0, ptr %7, align 4, !tbaa !30
  %8 = load i64, ptr %4, align 8, !tbaa !4
  %9 = call noundef nonnull align 4 dereferenceable(8) ptr @_ZN4absl8Duration5HiRepaSEl(ptr noundef nonnull align 4 dereferenceable(8) %5, i64 noundef %8)
  ret void
}

; Function Attrs: mustprogress nounwind willreturn memory(none) uwtable
define linkonce_odr dso_local { i64, i32 } @_ZN4absl13time_internal22MakeNormalizedDurationEll(i64 noundef %0, i64 noundef %1) #2 comdat {
  %3 = alloca %"class.absl::Duration", align 4
  %4 = alloca i64, align 8
  %5 = alloca i64, align 8
  %6 = alloca { i64, i32 }, align 8
  %7 = alloca { i64, i32 }, align 8
  %8 = alloca { i64, i32 }, align 8
  store i64 %0, ptr %4, align 8, !tbaa !4
  store i64 %1, ptr %5, align 8, !tbaa !4
  %9 = load i64, ptr %5, align 8, !tbaa !4
  %10 = icmp slt i64 %9, 0
  br i1 %10, label %11, label %17

11:                                               ; preds = %2
  %12 = load i64, ptr %4, align 8, !tbaa !4
  %13 = sub nsw i64 %12, 1
  %14 = load i64, ptr %5, align 8, !tbaa !4
  %15 = add nsw i64 %14, 4000000000
  %16 = call { i64, i32 } @_ZN4absl13time_internal12MakeDurationEll(i64 noundef %13, i64 noundef %15) #11
  store { i64, i32 } %16, ptr %6, align 8
  call void @llvm.memcpy.p0.p0.i64(ptr align 4 %3, ptr align 8 %6, i64 12, i1 false)
  br label %21

17:                                               ; preds = %2
  %18 = load i64, ptr %4, align 8, !tbaa !4
  %19 = load i64, ptr %5, align 8, !tbaa !4
  %20 = call { i64, i32 } @_ZN4absl13time_internal12MakeDurationEll(i64 noundef %18, i64 noundef %19) #11
  store { i64, i32 } %20, ptr %7, align 8
  call void @llvm.memcpy.p0.p0.i64(ptr align 4 %3, ptr align 8 %7, i64 12, i1 false)
  br label %21

21:                                               ; preds = %17, %11
  call void @llvm.memcpy.p0.p0.i64(ptr align 8 %8, ptr align 4 %3, i64 12, i1 false)
  %22 = load { i64, i32 }, ptr %8, align 8
  ret { i64, i32 } %22
}

; Function Attrs: mustprogress uwtable
define linkonce_odr dso_local void @_ZN4absl8DurationC2Elj(ptr noundef nonnull align 4 dereferenceable(12) %0, i64 noundef %1, i32 noundef %2) unnamed_addr #0 comdat align 2 {
  %4 = alloca ptr, align 8
  %5 = alloca i64, align 8
  %6 = alloca i32, align 4
  store ptr %0, ptr %4, align 8, !tbaa !19
  store i64 %1, ptr %5, align 8, !tbaa !4
  store i32 %2, ptr %6, align 4, !tbaa !9
  %7 = load ptr, ptr %4, align 8
  %8 = getelementptr inbounds nuw %"class.absl::Duration", ptr %7, i32 0, i32 0
  %9 = load i64, ptr %5, align 8, !tbaa !4
  call void @_ZN4absl8Duration5HiRepC2El(ptr noundef nonnull align 4 dereferenceable(8) %8, i64 noundef %9)
  %10 = getelementptr inbounds nuw %"class.absl::Duration", ptr %7, i32 0, i32 1
  %11 = load i32, ptr %6, align 4, !tbaa !9
  store i32 %11, ptr %10, align 4, !tbaa !24
  ret void
}

; Function Attrs: mustprogress nounwind willreturn memory(none) uwtable
define linkonce_odr dso_local { i64, i32 } @_ZN4absl13time_internal9FromInt64ILl1000000000EEENS_8DurationElSt5ratioILl1EXT_EE(i64 noundef %0) #2 comdat {
  %2 = alloca %"class.absl::Duration", align 4
  %3 = alloca i64, align 8
  %4 = alloca { i64, i32 }, align 8
  %5 = alloca { i64, i32 }, align 8
  store i64 %0, ptr %3, align 8, !tbaa !4
  %6 = load i64, ptr %3, align 8, !tbaa !4
  %7 = sdiv i64 %6, 1000000000
  %8 = load i64, ptr %3, align 8, !tbaa !4
  %9 = srem i64 %8, 1000000000
  %10 = mul nsw i64 %9, 4
  %11 = mul nsw i64 %10, 1000
  %12 = mul nsw i64 %11, 1000
  %13 = mul nsw i64 %12, 1000
  %14 = sdiv i64 %13, 1000000000
  %15 = call { i64, i32 } @_ZN4absl13time_internal22MakeNormalizedDurationEll(i64 noundef %7, i64 noundef %14) #11
  store { i64, i32 } %15, ptr %4, align 8
  call void @llvm.memcpy.p0.p0.i64(ptr align 4 %2, ptr align 8 %4, i64 12, i1 false)
  call void @llvm.memcpy.p0.p0.i64(ptr align 8 %5, ptr align 4 %2, i64 12, i1 false)
  %16 = load { i64, i32 }, ptr %5, align 8
  ret { i64, i32 } %16
}

; Function Attrs: mustprogress nounwind uwtable
define linkonce_odr dso_local void @_ZN4absl4TimeC2ENS_8DurationE(ptr noundef nonnull align 4 dereferenceable(12) %0, i64 %1, i32 %2) unnamed_addr #5 comdat align 2 {
  %4 = alloca %"class.absl::Duration", align 4
  %5 = alloca { i64, i32 }, align 4
  %6 = alloca ptr, align 8
  %7 = getelementptr inbounds nuw { i64, i32 }, ptr %5, i32 0, i32 0
  store i64 %1, ptr %7, align 4
  %8 = getelementptr inbounds nuw { i64, i32 }, ptr %5, i32 0, i32 1
  store i32 %2, ptr %8, align 4
  call void @llvm.memcpy.p0.p0.i64(ptr align 4 %4, ptr align 4 %5, i64 12, i1 false)
  store ptr %0, ptr %6, align 8, !tbaa !22
  %9 = load ptr, ptr %6, align 8
  %10 = getelementptr inbounds nuw %"class.absl::Time", ptr %9, i32 0, i32 0
  call void @llvm.memcpy.p0.p0.i64(ptr align 4 %10, ptr align 4 %4, i64 12, i1 false), !tbaa.struct !8
  ret void
}

; Function Attrs: mustprogress nounwind willreturn memory(none) uwtable
define linkonce_odr dso_local { i64, i32 } @_ZN4absl13time_internal12MakeDurationElj(i64 noundef %0, i32 noundef %1) #2 comdat {
  %3 = alloca %"class.absl::Duration", align 4
  %4 = alloca i64, align 8
  %5 = alloca i32, align 4
  %6 = alloca { i64, i32 }, align 8
  store i64 %0, ptr %4, align 8, !tbaa !4
  store i32 %1, ptr %5, align 4, !tbaa !9
  %7 = load i64, ptr %4, align 8, !tbaa !4
  %8 = load i32, ptr %5, align 4, !tbaa !9
  call void @_ZN4absl8DurationC2Elj(ptr noundef nonnull align 4 dereferenceable(12) %3, i64 noundef %7, i32 noundef %8)
  call void @llvm.memcpy.p0.p0.i64(ptr align 8 %6, ptr align 4 %3, i64 12, i1 false)
  %9 = load { i64, i32 }, ptr %6, align 8
  ret { i64, i32 } %9
}

; Function Attrs: mustprogress uwtable
define internal noundef i64 @_ZN4absl13time_internalL29GetCurrentTimeNanosFromSystemEv() #0 {
  %1 = alloca i64, align 8
  %2 = alloca %struct.timespec, align 8
  %3 = alloca ptr, align 8
  call void @llvm.lifetime.start.p0(i64 8, ptr %1) #10
  store i64 1000000000, ptr %1, align 8, !tbaa !4
  call void @llvm.lifetime.start.p0(i64 16, ptr %2) #10
  br label %4

4:                                                ; preds = %0
  %5 = call i32 @clock_gettime(i32 noundef 0, ptr noundef %2) #10
  %6 = icmp eq i32 %5, 0
  %7 = xor i1 %6, true
  %8 = zext i1 %7 to i64
  %9 = call i64 @llvm.expect.i64(i64 %8, i64 0)
  %10 = icmp ne i64 %9, 0
  br i1 %10, label %11, label %18

11:                                               ; preds = %4
  br label %12

12:                                               ; preds = %11
  call void @llvm.lifetime.start.p0(i64 8, ptr %3) #10
  store ptr getelementptr (i8, ptr @.str, i64 118), ptr %3, align 8, !tbaa !11
  call void (i32, ptr, i32, ptr, ...) @_ZN4absl16raw_log_internal6RawLogENS_11LogSeverityEPKciS3_z(i32 noundef 3, ptr noundef getelementptr (i8, ptr @.str, i64 118), i32 noundef 17, ptr noundef @.str.1, ptr noundef @.str.2, ptr noundef @.str.3)
  br label %13

13:                                               ; preds = %12
  unreachable

14:                                               ; No predecessors!
  br label %15

15:                                               ; preds = %14
  call void @llvm.lifetime.end.p0(i64 8, ptr %3) #10
  br label %16

16:                                               ; preds = %15
  br label %17

17:                                               ; preds = %16
  br label %18

18:                                               ; preds = %17, %4
  br label %19

19:                                               ; preds = %18
  br label %20

20:                                               ; preds = %19
  %21 = getelementptr inbounds nuw %struct.timespec, ptr %2, i32 0, i32 0
  %22 = load i64, ptr %21, align 8, !tbaa !14
  %23 = mul nsw i64 %22, 1000000000
  %24 = getelementptr inbounds nuw %struct.timespec, ptr %2, i32 0, i32 1
  %25 = load i64, ptr %24, align 8, !tbaa !16
  %26 = add nsw i64 %23, %25
  call void @llvm.lifetime.end.p0(i64 16, ptr %2) #10
  call void @llvm.lifetime.end.p0(i64 8, ptr %1) #10
  ret i64 %26
}

; Function Attrs: mustprogress nounwind willreturn memory(none) uwtable
define linkonce_odr dso_local { i64, i32 } @_ZN4absl11NanosecondsIlTnNSt9enable_ifIXoosr3std11is_integralIT_EE5valuesr3std7is_enumIS2_EE5valueEiE4typeELi0EEENS_8DurationES2_(i64 noundef %0) #2 comdat {
  %2 = alloca %"class.absl::Duration", align 4
  %3 = alloca i64, align 8
  %4 = alloca { i64, i32 }, align 8
  %5 = alloca { i64, i32 }, align 8
  store i64 %0, ptr %3, align 8, !tbaa !4
  %6 = load i64, ptr %3, align 8, !tbaa !4
  %7 = call { i64, i32 } @_ZN4absl13time_internal9FromInt64ILl1000000000EEENS_8DurationElSt5ratioILl1EXT_EE(i64 noundef %6) #11
  store { i64, i32 } %7, ptr %4, align 8
  call void @llvm.memcpy.p0.p0.i64(ptr align 4 %2, ptr align 8 %4, i64 12, i1 false)
  call void @llvm.memcpy.p0.p0.i64(ptr align 8 %5, ptr align 4 %2, i64 12, i1 false)
  %8 = load { i64, i32 }, ptr %5, align 8
  ret { i64, i32 } %8
}

; Function Attrs: mustprogress nounwind willreturn memory(none) uwtable
define linkonce_odr dso_local { i64, i32 } @_ZN4absl13time_internal16FromUnixDurationENS_8DurationE(i64 %0, i32 %1) #2 comdat {
  %3 = alloca %"class.absl::Time", align 4
  %4 = alloca %"class.absl::Duration", align 4
  %5 = alloca { i64, i32 }, align 4
  %6 = alloca %"class.absl::Duration", align 4
  %7 = alloca { i64, i32 }, align 4
  %8 = alloca { i64, i32 }, align 8
  %9 = getelementptr inbounds nuw { i64, i32 }, ptr %5, i32 0, i32 0
  store i64 %0, ptr %9, align 4
  %10 = getelementptr inbounds nuw { i64, i32 }, ptr %5, i32 0, i32 1
  store i32 %1, ptr %10, align 4
  call void @llvm.memcpy.p0.p0.i64(ptr align 4 %4, ptr align 4 %5, i64 12, i1 false)
  call void @llvm.memcpy.p0.p0.i64(ptr align 4 %6, ptr align 4 %4, i64 12, i1 false), !tbaa.struct !8
  call void @llvm.memcpy.p0.p0.i64(ptr align 4 %7, ptr align 4 %6, i64 12, i1 false)
  %11 = getelementptr inbounds nuw { i64, i32 }, ptr %7, i32 0, i32 0
  %12 = load i64, ptr %11, align 4
  %13 = getelementptr inbounds nuw { i64, i32 }, ptr %7, i32 0, i32 1
  %14 = load i32, ptr %13, align 4
  call void @_ZN4absl4TimeC2ENS_8DurationE(ptr noundef nonnull align 4 dereferenceable(12) %3, i64 %12, i32 %14)
  %15 = getelementptr inbounds nuw %"class.absl::Time", ptr %3, i32 0, i32 0
  call void @llvm.memcpy.p0.p0.i64(ptr align 8 %8, ptr align 4 %15, i64 12, i1 false)
  %16 = load { i64, i32 }, ptr %8, align 8
  ret { i64, i32 } %16
}

; Function Attrs: mustprogress nounwind willreturn memory(none) uwtable
define linkonce_odr dso_local { i64, i32 } @_ZN4absl13time_internal12MakeDurationEll(i64 noundef %0, i64 noundef %1) #2 comdat {
  %3 = alloca %"class.absl::Duration", align 4
  %4 = alloca i64, align 8
  %5 = alloca i64, align 8
  %6 = alloca { i64, i32 }, align 8
  %7 = alloca { i64, i32 }, align 8
  store i64 %0, ptr %4, align 8, !tbaa !4
  store i64 %1, ptr %5, align 8, !tbaa !4
  %8 = load i64, ptr %4, align 8, !tbaa !4
  %9 = load i64, ptr %5, align 8, !tbaa !4
  %10 = trunc i64 %9 to i32
  %11 = call { i64, i32 } @_ZN4absl13time_internal12MakeDurationElj(i64 noundef %8, i32 noundef %10) #11
  store { i64, i32 } %11, ptr %6, align 8
  call void @llvm.memcpy.p0.p0.i64(ptr align 4 %3, ptr align 8 %6, i64 12, i1 false)
  call void @llvm.memcpy.p0.p0.i64(ptr align 8 %7, ptr align 4 %3, i64 12, i1 false)
  %12 = load { i64, i32 }, ptr %7, align 8
  ret { i64, i32 } %12
}

; Function Attrs: mustprogress uwtable
define dso_local noundef i64 @_ZN4absl19GetCurrentTimeNanosEv() #0 {
  %1 = call noundef i64 @_ZN4absl13time_internalL29GetCurrentTimeNanosFromSystemEv()
  ret i64 %1
}

; Function Attrs: mustprogress uwtable
define dso_local { i64, i32 } @_ZN4absl3NowEv() #0 {
  %1 = alloca %"class.absl::Time", align 4
  %2 = alloca i64, align 8
  %3 = alloca %"class.absl::Duration", align 4
  %4 = alloca { i64, i32 }, align 8
  %5 = alloca { i64, i32 }, align 4
  %6 = alloca { i64, i32 }, align 8
  %7 = alloca i32, align 4
  %8 = alloca %"class.absl::Duration", align 4
  %9 = alloca { i64, i32 }, align 8
  %10 = alloca { i64, i32 }, align 4
  %11 = alloca { i64, i32 }, align 8
  %12 = alloca { i64, i32 }, align 8
  call void @llvm.lifetime.start.p0(i64 8, ptr %2) #10
  %13 = call noundef i64 @_ZN4absl19GetCurrentTimeNanosEv()
  store i64 %13, ptr %2, align 8, !tbaa !4
  %14 = load i64, ptr %2, align 8, !tbaa !4
  %15 = icmp sge i64 %14, 0
  br i1 %15, label %16, label %29

16:                                               ; preds = %0
  %17 = load i64, ptr %2, align 8, !tbaa !4
  %18 = sdiv i64 %17, 1000000000
  %19 = load i64, ptr %2, align 8, !tbaa !4
  %20 = srem i64 %19, 1000000000
  %21 = mul nsw i64 %20, 4
  %22 = call { i64, i32 } @_ZN4absl13time_internal12MakeDurationEll(i64 noundef %18, i64 noundef %21) #11
  store { i64, i32 } %22, ptr %4, align 8
  call void @llvm.memcpy.p0.p0.i64(ptr align 4 %3, ptr align 8 %4, i64 12, i1 false)
  call void @llvm.memcpy.p0.p0.i64(ptr align 4 %5, ptr align 4 %3, i64 12, i1 false)
  %23 = getelementptr inbounds nuw { i64, i32 }, ptr %5, i32 0, i32 0
  %24 = load i64, ptr %23, align 4
  %25 = getelementptr inbounds nuw { i64, i32 }, ptr %5, i32 0, i32 1
  %26 = load i32, ptr %25, align 4
  %27 = call { i64, i32 } @_ZN4absl13time_internal16FromUnixDurationENS_8DurationE(i64 %24, i32 %26) #11
  %28 = getelementptr inbounds nuw %"class.absl::Time", ptr %1, i32 0, i32 0
  store { i64, i32 } %27, ptr %6, align 8
  call void @llvm.memcpy.p0.p0.i64(ptr align 4 %28, ptr align 8 %6, i64 12, i1 false)
  store i32 1, ptr %7, align 4
  br label %38

29:                                               ; preds = %0
  %30 = load i64, ptr %2, align 8, !tbaa !4
  %31 = call { i64, i32 } @_ZN4absl11NanosecondsIlTnNSt9enable_ifIXoosr3std11is_integralIT_EE5valuesr3std7is_enumIS2_EE5valueEiE4typeELi0EEENS_8DurationES2_(i64 noundef %30) #11
  store { i64, i32 } %31, ptr %9, align 8
  call void @llvm.memcpy.p0.p0.i64(ptr align 4 %8, ptr align 8 %9, i64 12, i1 false)
  call void @llvm.memcpy.p0.p0.i64(ptr align 4 %10, ptr align 4 %8, i64 12, i1 false)
  %32 = getelementptr inbounds nuw { i64, i32 }, ptr %10, i32 0, i32 0
  %33 = load i64, ptr %32, align 4
  %34 = getelementptr inbounds nuw { i64, i32 }, ptr %10, i32 0, i32 1
  %35 = load i32, ptr %34, align 4
  %36 = call { i64, i32 } @_ZN4absl13time_internal16FromUnixDurationENS_8DurationE(i64 %33, i32 %35) #11
  %37 = getelementptr inbounds nuw %"class.absl::Time", ptr %1, i32 0, i32 0
  store { i64, i32 } %36, ptr %11, align 8
  call void @llvm.memcpy.p0.p0.i64(ptr align 4 %37, ptr align 8 %11, i64 12, i1 false)
  store i32 1, ptr %7, align 4
  br label %38

38:                                               ; preds = %29, %16
  call void @llvm.lifetime.end.p0(i64 8, ptr %2) #10
  %39 = getelementptr inbounds nuw %"class.absl::Time", ptr %1, i32 0, i32 0
  call void @llvm.memcpy.p0.p0.i64(ptr align 8 %12, ptr align 4 %39, i64 12, i1 false)
  %40 = load { i64, i32 }, ptr %12, align 8
  ret { i64, i32 } %40
}