; Function Attrs: mustprogress uwtable
define dso_local { i64, i32 } @_ZN4absl3NowEv() local_unnamed_addr #0 {
  %1 = alloca %struct.timespec, align 8
  call void @llvm.lifetime.start.p0(i64 16, ptr nonnull %1) #5
  %2 = call i32 @clock_gettime(i32 noundef 0, ptr noundef nonnull %1) #5
  %.not.i.i = icmp eq i32 %2, 0
  br i1 %.not.i.i, label %_ZN4absl19GetCurrentTimeNanosEv.exit, label %3, !prof !4

3:                                                ; preds = %0
  call void (i32, ptr, i32, ptr, ...) @_ZN4absl16raw_log_internal6RawLogENS_11LogSeverityEPKciS3_z(i32 noundef 3, ptr noundef nonnull getelementptr inbounds nuw (i8, ptr @.str, i64 118), i32 noundef 17, ptr noundef nonnull @.str.1, ptr noundef nonnull @.str.2, ptr noundef nonnull @.str.3)
  unreachable

_ZN4absl19GetCurrentTimeNanosEv.exit:             ; preds = %0
  %4 = load i64, ptr %1, align 8, !tbaa !5
  %5 = mul nsw i64 %4, 1000000000
  %6 = getelementptr inbounds nuw i8, ptr %1, i64 8
  %7 = load i64, ptr %6, align 8, !tbaa !10
  %8 = add nsw i64 %5, %7
  call void @llvm.lifetime.end.p0(i64 16, ptr nonnull %1) #5
  %9 = icmp sgt i64 %8, -1
  br i1 %9, label %10, label %14

10:                                               ; preds = %_ZN4absl19GetCurrentTimeNanosEv.exit
  %11 = udiv i64 %8, 1000000000
  %12 = urem i64 %8, 1000000000
  %.tr = trunc nuw nsw i64 %12 to i32
  %13 = shl nuw i32 %.tr, 2
  br label %19

14:                                               ; preds = %_ZN4absl19GetCurrentTimeNanosEv.exit
  %.nonneg = sub i64 0, %8
  %15 = udiv i64 %.nonneg, 1000000000
  %16 = urem i64 %.nonneg, 1000000000
  %.neg29 = sub nsw i64 0, %16
  %.not = icmp eq i64 %16, 0
  %.tr.i.i = trunc nsw i64 %.neg29 to i32
  %17 = shl i32 %.tr.i.i, 2
  %18 = add i32 %17, -294967296
  %.lobit.i.i.i = ashr i64 %.neg29, 61
  %.pn17.i.i.i = sub nsw i64 %.lobit.i.i.i, %15
  %.pn15.i.i.i = select i1 %.not, i32 0, i32 %18
  br label %19

19:                                               ; preds = %14, %10
  %.pn32 = phi i64 [ %11, %10 ], [ %.pn17.i.i.i, %14 ]
  %.pn30 = phi i32 [ %13, %10 ], [ %.pn15.i.i.i, %14 ]
  %.fca.0.insert.i.i.pn = insertvalue { i64, i32 } poison, i64 %.pn32, 0
  %.pn = insertvalue { i64, i32 } %.fca.0.insert.i.i.pn, i32 %.pn30, 1
  ret { i64, i32 } %.pn
}